; ModuleID = '7/903.c'
source_filename = "7/903.c"
target datalayout = "e-m:e-p270:32:32-p271:32:32-p272:64:64-i64:64-f80:128-n8:16:32:64-S128"
target triple = "x86_64-pc-linux-gnu"

@.str = private unnamed_addr constant [9 x i8] c"%s %s %s\00", align 1
@.str.1 = private unnamed_addr constant [7 x i8] c"%s%s%s\00", align 1
@.str.2 = private unnamed_addr constant [3 x i8] c"%s\00", align 1

; Function Attrs: noinline nounwind uwtable
define dso_local i32 @main() #0 {
  %1 = alloca i32, align 4
  %2 = alloca i32, align 4
  %3 = alloca i32, align 4
  %4 = alloca i32, align 4
  %5 = alloca i32, align 4
  %6 = alloca i32, align 4
  %7 = alloca [257 x i8], align 16
  %8 = alloca [200 x i8], align 16
  %9 = alloca [50 x i8], align 16
  store i32 0, i32* %1, align 4
  %10 = getelementptr inbounds [257 x i8], [257 x i8]* %7, i64 0, i64 0
  %11 = getelementptr inbounds [200 x i8], [200 x i8]* %8, i64 0, i64 0
  %12 = getelementptr inbounds [50 x i8], [50 x i8]* %9, i64 0, i64 0
  %13 = call i32 (i8*, ...) @__isoc99_scanf(i8* getelementptr inbounds ([9 x i8], [9 x i8]* @.str, i64 0, i64 0), i8* %10, i8* %11, i8* %12)
  %14 = getelementptr inbounds [200 x i8], [200 x i8]* %8, i64 0, i64 0
  %15 = call i64 @strlen(i8* %14) #3
  %16 = trunc i64 %15 to i32
  store i32 %16, i32* %6, align 4
  store i32 500, i32* %4, align 4
  store i32 0, i32* %2, align 4
  br label %17

17:                                               ; preds = %69, %0
  %18 = load i32, i32* %2, align 4
  %19 = sext i32 %18 to i64
  %20 = getelementptr inbounds [257 x i8], [257 x i8]* %7, i64 0, i64 %19
  %21 = load i8, i8* %20, align 1
  %22 = sext i8 %21 to i32
  %23 = icmp ne i32 %22, 0
  br i1 %23, label %24, label %72

24:                                               ; preds = %17
  %25 = load i32, i32* %2, align 4
  %26 = sext i32 %25 to i64
  %27 = getelementptr inbounds [257 x i8], [257 x i8]* %7, i64 0, i64 %26
  %28 = load i8, i8* %27, align 1
  %29 = sext i8 %28 to i32
  %30 = getelementptr inbounds [200 x i8], [200 x i8]* %8, i64 0, i64 0
  %31 = load i8, i8* %30, align 16
  %32 = sext i8 %31 to i32
  %33 = icmp eq i32 %29, %32
  br i1 %33, label %34, label %68

34:                                               ; preds = %24
  %35 = load i32, i32* %2, align 4
  store i32 %35, i32* %5, align 4
  br label %36

36:                                               ; preds = %58, %34
  %37 = load i32, i32* %5, align 4
  %38 = load i32, i32* %2, align 4
  %39 = load i32, i32* %6, align 4
  %40 = add nsw i32 %38, %39
  %41 = icmp slt i32 %37, %40
  br i1 %41, label %42, label %61

42:                                               ; preds = %36
  %43 = load i32, i32* %5, align 4
  %44 = sext i32 %43 to i64
  %45 = getelementptr inbounds [257 x i8], [257 x i8]* %7, i64 0, i64 %44
  %46 = load i8, i8* %45, align 1
  %47 = sext i8 %46 to i32
  %48 = load i32, i32* %5, align 4
  %49 = load i32, i32* %2, align 4
  %50 = sub nsw i32 %48, %49
  %51 = sext i32 %50 to i64
  %52 = getelementptr inbounds [200 x i8], [200 x i8]* %8, i64 0, i64 %51
  %53 = load i8, i8* %52, align 1
  %54 = sext i8 %53 to i32
  %55 = icmp ne i32 %47, %54
  br i1 %55, label %56, label %57

56:                                               ; preds = %42
  store i32 0, i32* %3, align 4
  br label %61

57:                                               ; preds = %42
  br label %58

58:                                               ; preds = %57
  %59 = load i32, i32* %5, align 4
  %60 = add nsw i32 %59, 1
  store i32 %60, i32* %5, align 4
  br label %36

61:                                               ; preds = %56, %36
  %62 = load i32, i32* %3, align 4
  %63 = icmp ne i32 %62, 0
  br i1 %63, label %64, label %66

64:                                               ; preds = %61
  %65 = load i32, i32* %2, align 4
  store i32 %65, i32* %4, align 4
  br label %72

66:                                               ; preds = %61
  store i32 1, i32* %3, align 4
  br label %67

67:                                               ; preds = %66
  br label %68

68:                                               ; preds = %67, %24
  br label %69

69:                                               ; preds = %68
  %70 = load i32, i32* %2, align 4
  %71 = add nsw i32 %70, 1
  store i32 %71, i32* %2, align 4
  br label %17

72:                                               ; preds = %64, %17
  %73 = load i32, i32* %4, align 4
  %74 = icmp ne i32 %73, 500
  br i1 %74, label %75, label %110

75:                                               ; preds = %72
  store i32 0, i32* %5, align 4
  %76 = load i32, i32* %4, align 4
  %77 = load i32, i32* %6, align 4
  %78 = add nsw i32 %76, %77
  store i32 %78, i32* %2, align 4
  br label %79

79:                                               ; preds = %96, %75
  %80 = load i32, i32* %2, align 4
  %81 = sext i32 %80 to i64
  %82 = getelementptr inbounds [257 x i8], [257 x i8]* %7, i64 0, i64 %81
  %83 = load i8, i8* %82, align 1
  %84 = sext i8 %83 to i32
  %85 = icmp ne i32 %84, 0
  br i1 %85, label %86, label %99

86:                                               ; preds = %79
  %87 = load i32, i32* %2, align 4
  %88 = sext i32 %87 to i64
  %89 = getelementptr inbounds [257 x i8], [257 x i8]* %7, i64 0, i64 %88
  %90 = load i8, i8* %89, align 1
  %91 = load i32, i32* %5, align 4
  %92 = sext i32 %91 to i64
  %93 = getelementptr inbounds [200 x i8], [200 x i8]* %8, i64 0, i64 %92
  store i8 %90, i8* %93, align 1
  %94 = load i32, i32* %5, align 4
  %95 = add nsw i32 %94, 1
  store i32 %95, i32* %5, align 4
  br label %96

96:                                               ; preds = %86
  %97 = load i32, i32* %2, align 4
  %98 = add nsw i32 %97, 1
  store i32 %98, i32* %2, align 4
  br label %79

99:                                               ; preds = %79
  %100 = load i32, i32* %5, align 4
  %101 = sext i32 %100 to i64
  %102 = getelementptr inbounds [200 x i8], [200 x i8]* %8, i64 0, i64 %101
  store i8 0, i8* %102, align 1
  %103 = load i32, i32* %4, align 4
  %104 = sext i32 %103 to i64
  %105 = getelementptr inbounds [257 x i8], [257 x i8]* %7, i64 0, i64 %104
  store i8 0, i8* %105, align 1
  %106 = getelementptr inbounds [257 x i8], [257 x i8]* %7, i64 0, i64 0
  %107 = getelementptr inbounds [50 x i8], [50 x i8]* %9, i64 0, i64 0
  %108 = getelementptr inbounds [200 x i8], [200 x i8]* %8, i64 0, i64 0
  %109 = call i32 (i8*, ...) @printf(i8* getelementptr inbounds ([7 x i8], [7 x i8]* @.str.1, i64 0, i64 0), i8* %106, i8* %107, i8* %108)
  br label %113

110:                                              ; preds = %72
  %111 = getelementptr inbounds [257 x i8], [257 x i8]* %7, i64 0, i64 0
  %112 = call i32 (i8*, ...) @printf(i8* getelementptr inbounds ([3 x i8], [3 x i8]* @.str.2, i64 0, i64 0), i8* %111)
  br label %113

113:                                              ; preds = %110, %99
  ret i32 0
}

declare dso_local i32 @__isoc99_scanf(i8*, ...) #1

; Function Attrs: nounwind readonly
declare dso_local i64 @strlen(i8*) #2

declare dso_local i32 @printf(i8*, ...) #1


!llvm.module.flags = !{!0}
!llvm.ident = !{!1}

!0 = !{i32 1, !"wchar_size", i32 4}
!1 = !{!"clang version 10.0.0-4ubuntu1 "}
